target datalayout = "e-m:e-p270:32:32-p271:32:32-p272:64:64-i64:64-i128:128-f80:128-n8:16:32:64-S128"
target triple = "x86_64-pc-linux-gnu"

%struct._object = type { %union.anon, ptr }
%union.anon = type { i64 }
%struct.PyVarObject = type { %struct._object, i64 }
%struct.PyTupleObject = type { %struct.PyVarObject, [1 x ptr] }

@.str.64 = private unnamed_addr constant [11 x i8] c"attrgetter\00", align 1

; Function Attrs: inlinehint nounwind uwtable
define internal i64 @Py_SIZE(ptr noundef %0) #3 {
  %2 = alloca ptr, align 8
  store ptr %0, ptr %2, align 8, !tbaa !4
  %3 = load ptr, ptr %2, align 8, !tbaa !4
  %4 = getelementptr inbounds nuw %struct.PyVarObject, ptr %3, i32 0, i32 1
  %5 = load i64, ptr %4, align 8, !tbaa !60
  ret i64 %5
}

; Function Attrs: inlinehint nounwind uwtable
define internal i64 @PyTuple_GET_SIZE(ptr noundef %0) #3 {
  %2 = alloca ptr, align 8
  %3 = alloca ptr, align 8
  store ptr %0, ptr %2, align 8, !tbaa !4
  call void @llvm.lifetime.start.p0(i64 8, ptr %3) #7
  %4 = load ptr, ptr %2, align 8, !tbaa !4
  store ptr %4, ptr %3, align 8, !tbaa !9
  %5 = load ptr, ptr %3, align 8, !tbaa !9
  %6 = call i64 @Py_SIZE(ptr noundef %5)
  call void @llvm.lifetime.end.p0(i64 8, ptr %3) #7
  ret i64 %6
}

; Function Attrs: nounwind uwtable
define internal ptr @attrgetter_call(ptr noundef %0, ptr noundef %1, ptr noundef %2) #0 {
  %4 = alloca ptr, align 8
  %5 = alloca ptr, align 8
  %6 = alloca ptr, align 8
  %7 = alloca ptr, align 8
  store ptr %0, ptr %5, align 8, !tbaa !9
  store ptr %1, ptr %6, align 8, !tbaa !4
  store ptr %2, ptr %7, align 8, !tbaa !4
  %8 = load ptr, ptr %7, align 8, !tbaa !4
  %9 = icmp eq ptr %8, null
  br i1 %9, label %15, label %10

10:                                               ; preds = %3
  %11 = load ptr, ptr %7, align 8, !tbaa !4
  %12 = call i32 @_PyArg_NoKeywords(ptr noundef @.str.64, ptr noundef %11)
  %13 = icmp ne i32 %12, 0
  br i1 %13, label %15, label %14

14:                                               ; preds = %10
  store ptr null, ptr %4, align 8
  br label %36

15:                                               ; preds = %10, %3
  %16 = load ptr, ptr %6, align 8, !tbaa !4
  %17 = call i64 @PyTuple_GET_SIZE(ptr noundef %16)
  %18 = icmp sle i64 1, %17
  br i1 %18, label %19, label %23

19:                                               ; preds = %15
  %20 = load ptr, ptr %6, align 8, !tbaa !4
  %21 = call i64 @PyTuple_GET_SIZE(ptr noundef %20)
  %22 = icmp sle i64 %21, 1
  br i1 %22, label %29, label %23

23:                                               ; preds = %19, %15
  %24 = load ptr, ptr %6, align 8, !tbaa !4
  %25 = call i64 @PyTuple_GET_SIZE(ptr noundef %24)
  %26 = call i32 @_PyArg_CheckPositional(ptr noundef @.str.64, i64 noundef %25, i64 noundef 1, i64 noundef 1)
  %27 = icmp ne i32 %26, 0
  br i1 %27, label %29, label %28

28:                                               ; preds = %23
  store ptr null, ptr %4, align 8
  br label %36

29:                                               ; preds = %23, %19
  %30 = load ptr, ptr %5, align 8, !tbaa !9
  %31 = load ptr, ptr %6, align 8, !tbaa !4
  %32 = getelementptr inbounds nuw %struct.PyTupleObject, ptr %31, i32 0, i32 1
  %33 = getelementptr [1 x ptr], ptr %32, i64 0, i64 0
  %34 = load ptr, ptr %33, align 8, !tbaa !4
  %35 = call ptr @attrgetter_call_impl(ptr noundef %30, ptr noundef %34)
  store ptr %35, ptr %4, align 8
  br label %36

36:                                               ; preds = %29, %28, %14
  %37 = load ptr, ptr %4, align 8
  ret ptr %37
}