; Function Attrs: nounwind uwtable
define internal ptr @attrgetter_call(ptr noundef readonly captures(none) %0, ptr noundef readonly captures(none) %1, ptr noundef %2) #0 {
  %4 = icmp eq ptr %2, null
  br i1 %4, label %7, label %5

5:                                                ; preds = %3
  %6 = tail call i32 @_PyArg_NoKeywords(ptr noundef nonnull @.str.64, ptr noundef nonnull %2) #7
  %.not = icmp eq i32 %6, 0
  br i1 %.not, label %15, label %7

7:                                                ; preds = %5, %3
  %8 = getelementptr i8, ptr %1, i64 16
  %.val = load i64, ptr %8, align 8, !tbaa !43
  %or.cond = icmp eq i64 %.val, 1
  br i1 %or.cond, label %11, label %9

9:                                                ; preds = %7
  %10 = tail call i32 @_PyArg_CheckPositional(ptr noundef nonnull @.str.64, i64 noundef %.val, i64 noundef 1, i64 noundef 1) #7
  %.not9 = icmp eq i32 %10, 0
  br i1 %.not9, label %15, label %11

11:                                               ; preds = %7, %9
  %12 = getelementptr inbounds nuw i8, ptr %1, i64 24
  %13 = load ptr, ptr %12, align 8, !tbaa !17
  %14 = tail call fastcc ptr @attrgetter_call_impl(ptr noundef %0, ptr noundef %13)
  br label %15

15:                                               ; preds = %9, %5, %11
  %.0 = phi ptr [ %14, %11 ], [ null, %5 ], [ null, %9 ]
  ret ptr %.0
}